#include <math.h>
#include <stdio.h>
#include <stdlib.h>
#include <string.h>

int main(){
	int n,i,j,k=0,sum=0;
	scanf("%d",&n);
	int*ss=(int*)malloc(sizeof(int)*n);
	for(i=1;i<=n;i++){
		for(j=1;j<=i;j++){
			if(i%j==0){
				sum++;
			}
		}
		if(sum==2){
			ss[k]=i;
			k++;
		}
		sum=0;
	}
	j=0;
	for(i=0;i<k;i++){
		if(ss[i+1]-ss[i]==2){
			printf("%d %d\n",ss[i],ss[i+1]);
			j++;
		}
	}
	if(j==0){
		printf("empty");
	}
	free(ss);
return 0;
}